target datalayout = "e-m:e-p270:32:32-p271:32:32-p272:64:64-i64:64-i128:128-f80:128-n8:16:32:64-S128"
target triple = "x86_64-pc-linux-gnu"

%struct.fe_scram_state = type { i32, ptr, ptr, ptr, i32, i32, [32 x i8], ptr, ptr, ptr, ptr, ptr, i32, i32, ptr, ptr, [32 x i8] }

; Function Attrs: nounwind uwtable
define internal ptr @scram_init(ptr noundef %0, ptr noundef %1, ptr noundef %2) #0 {
  %4 = alloca ptr, align 8
  %5 = alloca ptr, align 8
  %6 = alloca ptr, align 8
  %7 = alloca ptr, align 8
  %8 = alloca ptr, align 8
  %9 = alloca ptr, align 8
  %10 = alloca i32, align 4
  %11 = alloca i32, align 4
  store ptr %0, ptr %5, align 8
  store ptr %1, ptr %6, align 8
  store ptr %2, ptr %7, align 8
  call void @llvm.lifetime.start.p0(i64 8, ptr %8) #8
  call void @llvm.lifetime.start.p0(i64 8, ptr %9) #8
  call void @llvm.lifetime.start.p0(i64 4, ptr %10) #8
  %12 = call noalias ptr @malloc(i64 noundef 168) #9
  store ptr %12, ptr %8, align 8
  %13 = load ptr, ptr %8, align 8
  %14 = icmp ne ptr %13, null
  br i1 %14, label %16, label %15

15:                                               ; preds = %3
  store ptr null, ptr %4, align 8
  store i32 1, ptr %11, align 4
  br label %70

16:                                               ; preds = %3
  %17 = load ptr, ptr %8, align 8
  call void @llvm.memset.p0.i64(ptr align 8 %17, i8 0, i64 168, i1 false)
  %18 = load ptr, ptr %5, align 8
  %19 = load ptr, ptr %8, align 8
  %20 = getelementptr inbounds nuw %struct.fe_scram_state, ptr %19, i32 0, i32 1
  store ptr %18, ptr %20, align 8
  %21 = load ptr, ptr %8, align 8
  %22 = getelementptr inbounds nuw %struct.fe_scram_state, ptr %21, i32 0, i32 0
  store i32 0, ptr %22, align 8
  %23 = load ptr, ptr %8, align 8
  %24 = getelementptr inbounds nuw %struct.fe_scram_state, ptr %23, i32 0, i32 5
  store i32 32, ptr %24, align 4
  %25 = load ptr, ptr %8, align 8
  %26 = getelementptr inbounds nuw %struct.fe_scram_state, ptr %25, i32 0, i32 4
  store i32 3, ptr %26, align 8
  %27 = load ptr, ptr %7, align 8
  %28 = call noalias ptr @strdup(ptr noundef %27) #8
  %29 = load ptr, ptr %8, align 8
  %30 = getelementptr inbounds nuw %struct.fe_scram_state, ptr %29, i32 0, i32 3
  store ptr %28, ptr %30, align 8
  %31 = load ptr, ptr %8, align 8
  %32 = getelementptr inbounds nuw %struct.fe_scram_state, ptr %31, i32 0, i32 3
  %33 = load ptr, ptr %32, align 8
  %34 = icmp ne ptr %33, null
  br i1 %34, label %37, label %35

35:                                               ; preds = %16
  %36 = load ptr, ptr %8, align 8
  call void @free(ptr noundef %36) #8
  store ptr null, ptr %4, align 8
  store i32 1, ptr %11, align 4
  br label %70

37:                                               ; preds = %16
  %38 = load ptr, ptr %6, align 8
  %39 = icmp ne ptr %38, null
  br i1 %39, label %40, label %68

40:                                               ; preds = %37
  %41 = load ptr, ptr %6, align 8
  %42 = call i32 @pg_saslprep(ptr noundef %41, ptr noundef %9)
  store i32 %42, ptr %10, align 4
  %43 = load i32, ptr %10, align 4
  %44 = icmp eq i32 %43, -1
  br i1 %44, label %45, label %50

45:                                               ; preds = %40
  %46 = load ptr, ptr %8, align 8
  %47 = getelementptr inbounds nuw %struct.fe_scram_state, ptr %46, i32 0, i32 3
  %48 = load ptr, ptr %47, align 8
  call void @free(ptr noundef %48) #8
  %49 = load ptr, ptr %8, align 8
  call void @free(ptr noundef %49) #8
  store ptr null, ptr %4, align 8
  store i32 1, ptr %11, align 4
  br label %70

50:                                               ; preds = %40
  %51 = load i32, ptr %10, align 4
  %52 = icmp ne i32 %51, 0
  br i1 %52, label %53, label %64

53:                                               ; preds = %50
  %54 = load ptr, ptr %6, align 8
  %55 = call noalias ptr @strdup(ptr noundef %54) #8
  store ptr %55, ptr %9, align 8
  %56 = load ptr, ptr %9, align 8
  %57 = icmp ne ptr %56, null
  br i1 %57, label %63, label %58

58:                                               ; preds = %53
  %59 = load ptr, ptr %8, align 8
  %60 = getelementptr inbounds nuw %struct.fe_scram_state, ptr %59, i32 0, i32 3
  %61 = load ptr, ptr %60, align 8
  call void @free(ptr noundef %61) #8
  %62 = load ptr, ptr %8, align 8
  call void @free(ptr noundef %62) #8
  store ptr null, ptr %4, align 8
  store i32 1, ptr %11, align 4
  br label %70

63:                                               ; preds = %53
  br label %64

64:                                               ; preds = %63, %50
  %65 = load ptr, ptr %9, align 8
  %66 = load ptr, ptr %8, align 8
  %67 = getelementptr inbounds nuw %struct.fe_scram_state, ptr %66, i32 0, i32 2
  store ptr %65, ptr %67, align 8
  br label %68

68:                                               ; preds = %64, %37
  %69 = load ptr, ptr %8, align 8
  store ptr %69, ptr %4, align 8
  store i32 1, ptr %11, align 4
  br label %70

70:                                               ; preds = %68, %58, %45, %35, %15
  call void @llvm.lifetime.end.p0(i64 4, ptr %10) #8
  call void @llvm.lifetime.end.p0(i64 8, ptr %9) #8
  call void @llvm.lifetime.end.p0(i64 8, ptr %8) #8
  %71 = load ptr, ptr %4, align 8
  ret ptr %71
}