; Function Attrs: nounwind uwtable
define internal noalias noundef ptr @scram_init(ptr noundef %0, ptr noundef %1, ptr noundef readonly captures(none) %2) #0 {
  %4 = alloca ptr, align 8
  call void @llvm.lifetime.start.p0(i64 8, ptr nonnull %4) #13
  %calloc = tail call dereferenceable_or_null(168) ptr @calloc(i64 1, i64 168)
  %.not = icmp eq ptr %calloc, null
  br i1 %.not, label %22, label %5

5:                                                ; preds = %3
  %6 = getelementptr inbounds nuw i8, ptr %calloc, i64 8
  store ptr %0, ptr %6, align 8
  %7 = getelementptr inbounds nuw i8, ptr %calloc, i64 36
  store i32 32, ptr %7, align 4
  %8 = getelementptr inbounds nuw i8, ptr %calloc, i64 32
  store i32 3, ptr %8, align 8
  %9 = tail call noalias ptr @strdup(ptr noundef %2) #13
  %10 = getelementptr inbounds nuw i8, ptr %calloc, i64 24
  store ptr %9, ptr %10, align 8
  %.not25 = icmp eq ptr %9, null
  br i1 %.not25, label %11, label %12

11:                                               ; preds = %5
  tail call void @free(ptr noundef nonnull %calloc) #13
  br label %22

12:                                               ; preds = %5
  %.not26 = icmp eq ptr %1, null
  br i1 %.not26, label %22, label %13

13:                                               ; preds = %12
  %14 = call i32 @pg_saslprep(ptr noundef nonnull %1, ptr noundef nonnull %4) #13
  switch i32 %14, label %16 [
    i32 -1, label %15
    i32 0, label %._crit_edge
  ]

._crit_edge:                                      ; preds = %13
  %.pre = load ptr, ptr %4, align 8
  br label %19

15:                                               ; preds = %13
  call void @free(ptr noundef nonnull %9) #13
  call void @free(ptr noundef nonnull %calloc) #13
  br label %22

16:                                               ; preds = %13
  %17 = call noalias ptr @strdup(ptr noundef nonnull %1) #13
  %.not28 = icmp eq ptr %17, null
  br i1 %.not28, label %18, label %19

18:                                               ; preds = %16
  call void @free(ptr noundef nonnull %9) #13
  call void @free(ptr noundef nonnull %calloc) #13
  br label %22

19:                                               ; preds = %._crit_edge, %16
  %20 = phi ptr [ %.pre, %._crit_edge ], [ %17, %16 ]
  %21 = getelementptr inbounds nuw i8, ptr %calloc, i64 16
  store ptr %20, ptr %21, align 8
  br label %22

22:                                               ; preds = %12, %19, %3, %18, %15, %11
  %.0 = phi ptr [ null, %15 ], [ null, %18 ], [ null, %11 ], [ null, %3 ], [ %calloc, %19 ], [ %calloc, %12 ]
  call void @llvm.lifetime.end.p0(i64 8, ptr nonnull %4) #13
  ret ptr %.0
}